; Listing generated by Microsoft (R) Optimizing Compiler Version 19.36.32532.0 

	TITLE	D:\my-github\personal-blog-dmytro.zharii.com\articles\2023-06-01-the-value-objects.assets\code-snippets\2023-06-11-the-c-lang-value-object\main.obj
	.686P
	.XMM
	include listing.inc
	.model	flat

INCLUDELIB LIBCMT
INCLUDELIB OLDNAMES

PUBLIC	___local_stdio_printf_options
PUBLIC	__vfprintf_l
PUBLIC	_printf
PUBLIC	_perform_operation_on_meters
PUBLIC	_main
PUBLIC	??_C@_0BL@PLNIPFLF@performing?5add?5operation?3?6@ ; `string'
PUBLIC	??_C@_0BL@JPAEOBFJ@performing?5sub?5operation?3?6@ ; `string'
PUBLIC	??_C@_0BL@JCDKHMOM@performing?5mul?5operation?3?6@ ; `string'
PUBLIC	??_C@_0BL@PKFDKCGO@performing?5div?5operation?3?6@ ; `string'
PUBLIC	??_C@_0CD@LCBDMMIM@Error?3?5operation?5value?5is?5inval@ ; `string'
PUBLIC	??_C@_0CA@KDAPOLNN@Error?5in?5first?5meter?5value?3?5?$CFs?6@ ; `string'
PUBLIC	??_C@_0BI@LOGEAJDC@Error?5in?5operation?3?5?$CFs?6@ ; `string'
PUBLIC	??_C@_0CB@ODJCKPMF@Error?5in?5second?5meter?5value?3?5?$CFs@ ; `string'
PUBLIC	??_C@_0BC@KMNBHFGM@?5?9?5Operand?51?3?5?$CFf?6@	; `string'
PUBLIC	??_C@_0BC@JNDJGPPB@?5?9?5Operand?52?3?5?$CFf?6@	; `string'
PUBLIC	??_C@_0BF@DGHHEGGO@Error?5in?5result?3?5?$CFs?6@ ; `string'
PUBLIC	??_C@_0P@OFJKINAP@?5?9?5Result?3?5?$CFf?6@	; `string'
EXTRN	_exit:PROC
EXTRN	_atof:PROC
EXTRN	___acrt_iob_func:PROC
EXTRN	___stdio_common_vfprintf:PROC
EXTRN	_meters_new:PROC
EXTRN	_operation_from_string:PROC
EXTRN	__fltused:DWORD
_DATA	SEGMENT
COMM	?_OptionsStorage@?1??__local_stdio_printf_options@@9@9:QWORD							; `__local_stdio_printf_options'::`2'::_OptionsStorage
_DATA	ENDS
;	COMDAT ??_C@_0P@OFJKINAP@?5?9?5Result?3?5?$CFf?6@
CONST	SEGMENT
??_C@_0P@OFJKINAP@?5?9?5Result?3?5?$CFf?6@ DB ' - Result: %f', 0aH, 00H ; `string'
CONST	ENDS
;	COMDAT ??_C@_0BF@DGHHEGGO@Error?5in?5result?3?5?$CFs?6@
CONST	SEGMENT
??_C@_0BF@DGHHEGGO@Error?5in?5result?3?5?$CFs?6@ DB 'Error in result: %s', 0aH
	DB	00H						; `string'
CONST	ENDS
;	COMDAT ??_C@_0BC@JNDJGPPB@?5?9?5Operand?52?3?5?$CFf?6@
CONST	SEGMENT
??_C@_0BC@JNDJGPPB@?5?9?5Operand?52?3?5?$CFf?6@ DB ' - Operand 2: %f', 0aH
	DB	00H						; `string'
CONST	ENDS
;	COMDAT ??_C@_0BC@KMNBHFGM@?5?9?5Operand?51?3?5?$CFf?6@
CONST	SEGMENT
??_C@_0BC@KMNBHFGM@?5?9?5Operand?51?3?5?$CFf?6@ DB ' - Operand 1: %f', 0aH
	DB	00H						; `string'
CONST	ENDS
;	COMDAT ??_C@_0CB@ODJCKPMF@Error?5in?5second?5meter?5value?3?5?$CFs@
CONST	SEGMENT
??_C@_0CB@ODJCKPMF@Error?5in?5second?5meter?5value?3?5?$CFs@ DB 'Error in'
	DB	' second meter value: %s', 0aH, 00H		; `string'
CONST	ENDS
;	COMDAT ??_C@_0BI@LOGEAJDC@Error?5in?5operation?3?5?$CFs?6@
CONST	SEGMENT
??_C@_0BI@LOGEAJDC@Error?5in?5operation?3?5?$CFs?6@ DB 'Error in operatio'
	DB	'n: %s', 0aH, 00H				; `string'
CONST	ENDS
;	COMDAT ??_C@_0CA@KDAPOLNN@Error?5in?5first?5meter?5value?3?5?$CFs?6@
CONST	SEGMENT
??_C@_0CA@KDAPOLNN@Error?5in?5first?5meter?5value?3?5?$CFs?6@ DB 'Error i'
	DB	'n first meter value: %s', 0aH, 00H		; `string'
CONST	ENDS
;	COMDAT ??_C@_0CD@LCBDMMIM@Error?3?5operation?5value?5is?5inval@
CONST	SEGMENT
??_C@_0CD@LCBDMMIM@Error?3?5operation?5value?5is?5inval@ DB 'Error: opera'
	DB	'tion value is invalid', 0aH, 00H		; `string'
CONST	ENDS
;	COMDAT ??_C@_0BL@PKFDKCGO@performing?5div?5operation?3?6@
CONST	SEGMENT
??_C@_0BL@PKFDKCGO@performing?5div?5operation?3?6@ DB 'performing div ope'
	DB	'ration:', 0aH, 00H				; `string'
CONST	ENDS
;	COMDAT ??_C@_0BL@JCDKHMOM@performing?5mul?5operation?3?6@
CONST	SEGMENT
??_C@_0BL@JCDKHMOM@performing?5mul?5operation?3?6@ DB 'performing mul ope'
	DB	'ration:', 0aH, 00H				; `string'
CONST	ENDS
;	COMDAT ??_C@_0BL@JPAEOBFJ@performing?5sub?5operation?3?6@
CONST	SEGMENT
??_C@_0BL@JPAEOBFJ@performing?5sub?5operation?3?6@ DB 'performing sub ope'
	DB	'ration:', 0aH, 00H				; `string'
CONST	ENDS
;	COMDAT ??_C@_0BL@PLNIPFLF@performing?5add?5operation?3?6@
CONST	SEGMENT
??_C@_0BL@PLNIPFLF@performing?5add?5operation?3?6@ DB 'performing add ope'
	DB	'ration:', 0aH, 00H				; `string'
CONST	ENDS
; Function compile flags: /Ogspy
;	COMDAT _main
_TEXT	SEGMENT
_argc$ = 8						; size = 4
tv293 = 12						; size = 4
tv286 = 12						; size = 4
_argv$ = 12						; size = 4
_main	PROC						; COMDAT
; File D:\my-github\personal-blog-dmytro.zharii.com\articles\2023-06-01-the-value-objects.assets\code-snippets\2023-06-11-the-c-lang-value-object\main.c
; Line 33
	push	ebp
	mov	ebp, esp
	push	ebx
	push	esi
; Line 36
	mov	esi, DWORD PTR _argv$[ebp]
	push	edi
	push	DWORD PTR [esi+4]
	call	_atof
	fstp	DWORD PTR tv293[ebp]
	fld	DWORD PTR tv293[ebp]
	fstp	DWORD PTR [esp]
	call	_meters_new
	mov	ebx, eax
	pop	ecx
; Line 37
	mov	ecx, DWORD PTR [ebx+4]
	test	ecx, ecx
	jne	$LN14@main
; Line 42
	push	DWORD PTR [esi+8]
	call	_operation_from_string
	mov	edi, eax
	pop	ecx
; Line 43
	mov	ecx, DWORD PTR [edi+4]
	test	ecx, ecx
	je	SHORT $LN3@main
; Line 44
	push	DWORD PTR [ecx+4]
	push	OFFSET ??_C@_0BI@LOGEAJDC@Error?5in?5operation?3?5?$CFs?6@
; Line 45
	jmp	$LN12@main
$LN3@main:
; Line 48
	push	DWORD PTR [esi+12]
	call	_atof
	fstp	DWORD PTR tv286[ebp]
	fld	DWORD PTR tv286[ebp]
	fstp	DWORD PTR [esp]
	call	_meters_new
	mov	esi, eax
	pop	ecx
; Line 49
	mov	ecx, DWORD PTR [esi+4]
	test	ecx, ecx
	je	SHORT $LN4@main
; Line 50
	push	DWORD PTR [ecx+4]
	push	OFFSET ??_C@_0CB@ODJCKPMF@Error?5in?5second?5meter?5value?3?5?$CFs@
; Line 51
	jmp	SHORT $LN12@main
$LN4@main:
	movss	xmm0, DWORD PTR [ebx]
; Line 56
	cvtps2pd xmm0, xmm0
	push	ecx
	push	ecx
	movsd	QWORD PTR [esp], xmm0
	push	OFFSET ??_C@_0BC@KMNBHFGM@?5?9?5Operand?51?3?5?$CFf?6@
	call	_printf
	movss	xmm0, DWORD PTR [esi]
; Line 57
	cvtps2pd xmm0, xmm0
	movsd	QWORD PTR [esp+4], xmm0
	mov	DWORD PTR [esp], OFFSET ??_C@_0BC@JNDJGPPB@?5?9?5Operand?52?3?5?$CFf?6@
	call	_printf
; Line 58
	push	edi
	push	esi
	push	ebx
	call	_perform_operation_on_meters
	add	esp, 24					; 00000018H
; Line 59
	mov	ecx, DWORD PTR [eax+4]
	test	ecx, ecx
	je	SHORT $LN5@main
; Line 60
	push	DWORD PTR [ecx+4]
	push	OFFSET ??_C@_0BF@DGHHEGGO@Error?5in?5result?3?5?$CFs?6@
; Line 61
	jmp	SHORT $LN12@main
$LN5@main:
	movss	xmm0, DWORD PTR [eax]
; Line 63
	cvtps2pd xmm0, xmm0
	push	ecx
	push	ecx
	movsd	QWORD PTR [esp], xmm0
	push	OFFSET ??_C@_0P@OFJKINAP@?5?9?5Result?3?5?$CFf?6@
	call	_printf
	add	esp, 12					; 0000000cH
; Line 64
	xor	eax, eax
	pop	edi
; Line 65
	pop	esi
	pop	ebx
	pop	ebp
	ret	0
$LN14@main:
; Line 38
	push	DWORD PTR [ecx+4]
	push	OFFSET ??_C@_0CA@KDAPOLNN@Error?5in?5first?5meter?5value?3?5?$CFs?6@
$LN12@main:
; Line 65
	call	_printf
	pop	ecx
	pop	ecx
	push	1
	call	_exit
$LN11@main:
	int	3
_main	ENDP
_TEXT	ENDS
; Function compile flags: /Ogspy
;	COMDAT _perform_operation_on_meters
_TEXT	SEGMENT
_operand1$1$ = -4					; size = 4
_operand2$1$ = 8					; size = 4
_m1$ = 8						; size = 4
_m2$ = 12						; size = 4
_op$ = 16						; size = 4
_perform_operation_on_meters PROC			; COMDAT
; File D:\my-github\personal-blog-dmytro.zharii.com\articles\2023-06-01-the-value-objects.assets\code-snippets\2023-06-11-the-c-lang-value-object\main.c
; Line 6
	push	ebp
	mov	ebp, esp
	push	ecx
; Line 7
	mov	eax, DWORD PTR _m1$[ebp]
	movss	xmm0, DWORD PTR [eax]
; Line 8
	mov	eax, DWORD PTR _m2$[ebp]
	movss	DWORD PTR _operand1$1$[ebp], xmm0
	movss	xmm0, DWORD PTR [eax]
; Line 10
	mov	eax, DWORD PTR _op$[ebp]
	movss	DWORD PTR _operand2$1$[ebp], xmm0
	mov	eax, DWORD PTR [eax]
	sub	eax, 1
	je	SHORT $LN4@perform_op
	sub	eax, 1
	je	SHORT $LN5@perform_op
	sub	eax, 1
	je	SHORT $LN6@perform_op
	sub	eax, 1
	jne	SHORT $LN13@perform_op
; Line 24
	push	OFFSET ??_C@_0BL@PKFDKCGO@performing?5div?5operation?3?6@
	call	_printf
; Line 25
	movss	xmm0, DWORD PTR _operand1$1$[ebp]
	divss	xmm0, DWORD PTR _operand2$1$[ebp]
; Line 26
	jmp	SHORT $LN11@perform_op
$LN6@perform_op:
; Line 20
	push	OFFSET ??_C@_0BL@JCDKHMOM@performing?5mul?5operation?3?6@
	call	_printf
; Line 21
	movss	xmm0, DWORD PTR _operand2$1$[ebp]
	mulss	xmm0, DWORD PTR _operand1$1$[ebp]
; Line 22
	jmp	SHORT $LN11@perform_op
$LN5@perform_op:
; Line 16
	push	OFFSET ??_C@_0BL@JPAEOBFJ@performing?5sub?5operation?3?6@
	call	_printf
; Line 17
	movss	xmm0, DWORD PTR _operand1$1$[ebp]
	subss	xmm0, DWORD PTR _operand2$1$[ebp]
; Line 18
	jmp	SHORT $LN11@perform_op
$LN4@perform_op:
; Line 12
	push	OFFSET ??_C@_0BL@PLNIPFLF@performing?5add?5operation?3?6@
	call	_printf
; Line 13
	movss	xmm0, DWORD PTR _operand2$1$[ebp]
	addss	xmm0, DWORD PTR _operand1$1$[ebp]
$LN11@perform_op:
; Line 31
	movss	DWORD PTR [esp], xmm0
	call	_meters_new
	pop	ecx
	leave
	ret	0
$LN13@perform_op:
; Line 28
	push	OFFSET ??_C@_0CD@LCBDMMIM@Error?3?5operation?5value?5is?5inval@
	call	_printf
	pop	ecx
; Line 29
	push	1
	call	_exit
$LN10@perform_op:
	int	3
_perform_operation_on_meters ENDP
_TEXT	ENDS
; Function compile flags: /Ogspy
;	COMDAT _printf
_TEXT	SEGMENT
__Format$ = 8						; size = 4
_printf	PROC						; COMDAT
; File D:\Windows Kits\10\include\10.0.22000.0\ucrt\stdio.h
; Line 960
	lea	eax, DWORD PTR __Format$[esp]
	push	eax
	push	0
	push	DWORD PTR __Format$[esp+4]
	push	1
	call	___acrt_iob_func
	pop	ecx
	push	eax
	call	__vfprintf_l
	add	esp, 16					; 00000010H
; Line 963
	ret	0
_printf	ENDP
_TEXT	ENDS
; Function compile flags: /Ogspy
;	COMDAT __vfprintf_l
_TEXT	SEGMENT
__Stream$ = 8						; size = 4
__Format$ = 12						; size = 4
__Locale$ = 16						; size = 4
__ArgList$ = 20						; size = 4
__vfprintf_l PROC					; COMDAT
; File D:\Windows Kits\10\include\10.0.22000.0\ucrt\stdio.h
; Line 645
	push	DWORD PTR __ArgList$[esp-4]
	push	DWORD PTR __Locale$[esp]
	push	DWORD PTR __Format$[esp+4]
	push	DWORD PTR __Stream$[esp+8]
	call	___local_stdio_printf_options
	push	DWORD PTR [eax+4]
	push	DWORD PTR [eax]
	call	___stdio_common_vfprintf
	add	esp, 24					; 00000018H
; Line 646
	ret	0
__vfprintf_l ENDP
_TEXT	ENDS
; Function compile flags: /Ogspy
;	COMDAT ___local_stdio_printf_options
_TEXT	SEGMENT
___local_stdio_printf_options PROC			; COMDAT
; File D:\Windows Kits\10\include\10.0.22000.0\ucrt\corecrt_stdio_config.h
; Line 92
	mov	eax, OFFSET ?_OptionsStorage@?1??__local_stdio_printf_options@@9@9 ; `__local_stdio_printf_options'::`2'::_OptionsStorage
; Line 93
	ret	0
___local_stdio_printf_options ENDP
_TEXT	ENDS
END
